(dp0
S'param_dict'
p1
(dp2
S'norm_type'
p3
S'clip_0to1'
p4
sS'score_clip'
p5
(lp6
F0.0
aF100.0
asS'C'
p7
F3.0
sS'nu'
p8
F0.9
sS'gamma'
p9
F0.03
ssS'model_dict'
p10
(dp11
S'model'
p12
Nsg3
S'linear_rescale'
p13
sg5
g6
sS'feature_names'
p14
(lp15
S'VMAF_feature_adm_scale0_score'
p16
aS'VMAF_feature_adm_scale1_score'
p17
aS'VMAF_feature_adm_scale2_score'
p18
aS'VMAF_feature_adm_scale3_score'
p19
aS'VMAF_feature_motion_score'
p20
aS'VMAF_feature_vif_scale0_score'
p21
aS'VMAF_feature_vif_scale1_score'
p22
aS'VMAF_feature_vif_scale2_score'
p23
aS'VMAF_feature_vif_scale3_score'
p24
asS'intercepts'
p25
(lp26
F-0.01818181818181818
aF-1.8946044949803056
aF-0.608499512947791
aF-0.8835643233703994
aF-2.515001251554537
aF-0.0367108312044613
aF-0.08203930409252254
aF-0.28580569810409906
aF-0.4801667335681057
aF-0.7764750530230472
asS'model_type'
p27
S'LIBSVMNUSVR'
p28
sS'slopes'
p29
(lp30
F0.009454545454545453
aF2.8946044949803054
aF1.608499512947791
aF1.8835643233703991
aF3.515001251554537
aF0.05246778885482756
aF1.0820392911303012
aF1.2858060650284484
aF1.480167484761588
aF1.7764758964900356
asS'feature_dict'
p31
(dp32
S'VMAF_feature'
p33
(lp34
S'vif_scale0'
p35
aS'vif_scale1'
p36
aS'vif_scale2'
p37
aS'vif_scale3'
p38
aS'adm_scale0'
p39
aS'adm_scale1'
p40
aS'adm_scale2'
p41
aS'adm_scale3'
p42
aS'motion'
p43
asss.